target datalayout = "e-m:e-p270:32:32-p271:32:32-p272:64:64-i64:64-i128:128-f80:128-n8:16:32:64-S128"
target triple = "x86_64-pc-linux-gnu"

%struct.Rwr_Man_t_ = type { i32, ptr, ptr, ptr, ptr, ptr, ptr, ptr, ptr, ptr, ptr, ptr, i32, i32, i32, i32, i32, ptr, ptr, ptr, ptr, ptr, i32, i32, i32, i32, i32, [222 x i32], i32, i32, i32, i64, i64, i64, i64, i64, i64, i64 }
%struct.Vec_Ptr_t_ = type { i32, i32, ptr }
%struct.Rwr_Node_t_ = type <{ i32, i32, i16, i16, i16, i32, [6 x i8], ptr, ptr, ptr }>
%struct.Vec_Vec_t_ = type { i32, i32, ptr }

; Function Attrs: inlinehint nounwind uwtable
define internal ptr @Vec_PtrEntry(ptr noundef %0, i32 noundef %1) #3 {
  %3 = alloca ptr, align 8
  %4 = alloca i32, align 4
  store ptr %0, ptr %3, align 8, !tbaa !66
  store i32 %1, ptr %4, align 4, !tbaa !12
  %5 = load ptr, ptr %3, align 8, !tbaa !66
  %6 = getelementptr inbounds nuw %struct.Vec_Ptr_t_, ptr %5, i32 0, i32 2
  %7 = load ptr, ptr %6, align 8, !tbaa !68
  %8 = load i32, ptr %4, align 4, !tbaa !12
  %9 = sext i32 %8 to i64
  %10 = getelementptr inbounds ptr, ptr %7, i64 %9
  %11 = load ptr, ptr %10, align 8, !tbaa !67
  ret ptr %11
}

; Function Attrs: inlinehint nounwind uwtable
define internal i32 @Vec_PtrSize(ptr noundef %0) #3 {
  %2 = alloca ptr, align 8
  store ptr %0, ptr %2, align 8, !tbaa !66
  %3 = load ptr, ptr %2, align 8, !tbaa !66
  %4 = getelementptr inbounds nuw %struct.Vec_Ptr_t_, ptr %3, i32 0, i32 1
  %5 = load i32, ptr %4, align 4, !tbaa !64
  ret i32 %5
}

; Function Attrs: inlinehint nounwind uwtable
define internal ptr @Vec_VecEntry(ptr noundef %0, i32 noundef %1) #3 {
  %3 = alloca ptr, align 8
  %4 = alloca i32, align 4
  store ptr %0, ptr %3, align 8, !tbaa !113
  store i32 %1, ptr %4, align 4, !tbaa !12
  %5 = load ptr, ptr %3, align 8, !tbaa !113
  %6 = getelementptr inbounds nuw %struct.Vec_Vec_t_, ptr %5, i32 0, i32 2
  %7 = load ptr, ptr %6, align 8, !tbaa !114
  %8 = load i32, ptr %4, align 4, !tbaa !12
  %9 = sext i32 %8 to i64
  %10 = getelementptr inbounds ptr, ptr %7, i64 %9
  %11 = load ptr, ptr %10, align 8, !tbaa !67
  ret ptr %11
}

; Function Attrs: nounwind uwtable
define void @Rwr_ScoresClean(ptr noundef %0) #0 {
  %2 = alloca ptr, align 8
  %3 = alloca ptr, align 8
  %4 = alloca ptr, align 8
  %5 = alloca i32, align 4
  %6 = alloca i32, align 4
  store ptr %0, ptr %2, align 8, !tbaa !3
  call void @llvm.lifetime.start.p0(i64 8, ptr %3) #7
  call void @llvm.lifetime.start.p0(i64 8, ptr %4) #7
  call void @llvm.lifetime.start.p0(i64 4, ptr %5) #7
  call void @llvm.lifetime.start.p0(i64 4, ptr %6) #7
  store i32 0, ptr %5, align 4, !tbaa !12
  br label %7

7:                                                ; preds = %43, %1
  %8 = load i32, ptr %5, align 4, !tbaa !12
  %9 = load ptr, ptr %2, align 8, !tbaa !3
  %10 = getelementptr inbounds nuw %struct.Rwr_Man_t_, ptr %9, i32 0, i32 10
  %11 = load ptr, ptr %10, align 8, !tbaa !85
  %12 = getelementptr inbounds nuw %struct.Vec_Vec_t_, ptr %11, i32 0, i32 1
  %13 = load i32, ptr %12, align 4, !tbaa !109
  %14 = icmp slt i32 %8, %13
  br i1 %14, label %15, label %46

15:                                               ; preds = %7
  %16 = load ptr, ptr %2, align 8, !tbaa !3
  %17 = getelementptr inbounds nuw %struct.Rwr_Man_t_, ptr %16, i32 0, i32 10
  %18 = load ptr, ptr %17, align 8, !tbaa !85
  %19 = load i32, ptr %5, align 4, !tbaa !12
  %20 = call ptr @Vec_VecEntry(ptr noundef %18, i32 noundef %19)
  store ptr %20, ptr %3, align 8, !tbaa !66
  store i32 0, ptr %6, align 4, !tbaa !12
  br label %21

21:                                               ; preds = %39, %15
  %22 = load i32, ptr %6, align 4, !tbaa !12
  %23 = load ptr, ptr %3, align 8, !tbaa !66
  %24 = call i32 @Vec_PtrSize(ptr noundef %23)
  %25 = icmp slt i32 %22, %24
  br i1 %25, label %26, label %30

26:                                               ; preds = %21
  %27 = load ptr, ptr %3, align 8, !tbaa !66
  %28 = load i32, ptr %6, align 4, !tbaa !12
  %29 = call ptr @Vec_PtrEntry(ptr noundef %27, i32 noundef %28)
  store ptr %29, ptr %4, align 8, !tbaa !88
  br label %30

30:                                               ; preds = %26, %21
  %31 = phi i1 [ false, %21 ], [ true, %26 ]
  br i1 %31, label %32, label %42

32:                                               ; preds = %30
  %33 = load ptr, ptr %4, align 8, !tbaa !88
  %34 = getelementptr inbounds nuw %struct.Rwr_Node_t_, ptr %33, i32 0, i32 4
  store i16 0, ptr %34, align 4, !tbaa !96
  %35 = load ptr, ptr %4, align 8, !tbaa !88
  %36 = getelementptr inbounds nuw %struct.Rwr_Node_t_, ptr %35, i32 0, i32 3
  store i16 0, ptr %36, align 2, !tbaa !95
  %37 = load ptr, ptr %4, align 8, !tbaa !88
  %38 = getelementptr inbounds nuw %struct.Rwr_Node_t_, ptr %37, i32 0, i32 2
  store i16 0, ptr %38, align 8, !tbaa !94
  br label %39

39:                                               ; preds = %32
  %40 = load i32, ptr %6, align 4, !tbaa !12
  %41 = add nsw i32 %40, 1
  store i32 %41, ptr %6, align 4, !tbaa !12
  br label %21, !llvm.loop !111

42:                                               ; preds = %30
  br label %43

43:                                               ; preds = %42
  %44 = load i32, ptr %5, align 4, !tbaa !12
  %45 = add nsw i32 %44, 1
  store i32 %45, ptr %5, align 4, !tbaa !12
  br label %7, !llvm.loop !112

46:                                               ; preds = %7
  call void @llvm.lifetime.end.p0(i64 4, ptr %6) #7
  call void @llvm.lifetime.end.p0(i64 4, ptr %5) #7
  call void @llvm.lifetime.end.p0(i64 8, ptr %4) #7
  call void @llvm.lifetime.end.p0(i64 8, ptr %3) #7
  ret void
}