; Function Attrs: nofree norecurse nosync nounwind memory(readwrite, inaccessiblemem: none) uwtable
define void @Rwr_ScoresClean(ptr noundef readonly captures(none) %0) local_unnamed_addr #5 {
  %2 = getelementptr inbounds nuw i8, ptr %0, i64 80
  %3 = load ptr, ptr %2, align 8, !tbaa !69
  %4 = getelementptr inbounds nuw i8, ptr %3, i64 4
  %5 = load i32, ptr %4, align 4, !tbaa !101
  %6 = icmp sgt i32 %5, 0
  br i1 %6, label %.lr.ph17, label %._crit_edge

.lr.ph17:                                         ; preds = %1
  %7 = getelementptr i8, ptr %3, i64 8
  %.val14 = load ptr, ptr %7, align 8, !tbaa !71
  %wide.trip.count22 = zext nneg i32 %5 to i64
  br label %8

8:                                                ; preds = %.lr.ph17, %.critedge
  %indvars.iv19 = phi i64 [ 0, %.lr.ph17 ], [ %indvars.iv.next20, %.critedge ]
  %9 = getelementptr inbounds nuw ptr, ptr %.val14, i64 %indvars.iv19
  %10 = load ptr, ptr %9, align 8, !tbaa !36
  %11 = getelementptr i8, ptr %10, i64 4
  %.val13 = load i32, ptr %11, align 4, !tbaa !32
  %12 = icmp sgt i32 %.val13, 0
  br i1 %12, label %.lr.ph, label %.critedge

.lr.ph:                                           ; preds = %8
  %13 = getelementptr i8, ptr %10, i64 8
  %.val = load ptr, ptr %13, align 8, !tbaa !35
  %wide.trip.count = zext nneg i32 %.val13 to i64
  br label %14

14:                                               ; preds = %.lr.ph, %14
  %indvars.iv = phi i64 [ 0, %.lr.ph ], [ %indvars.iv.next, %14 ]
  %15 = getelementptr inbounds nuw ptr, ptr %.val, i64 %indvars.iv
  %16 = load ptr, ptr %15, align 8, !tbaa !36
  %17 = getelementptr inbounds nuw i8, ptr %16, i64 12
  store i16 0, ptr %17, align 4, !tbaa !85
  %18 = getelementptr inbounds nuw i8, ptr %16, i64 10
  store i16 0, ptr %18, align 2, !tbaa !84
  %19 = getelementptr inbounds nuw i8, ptr %16, i64 8
  store i16 0, ptr %19, align 8, !tbaa !83
  %indvars.iv.next = add nuw nsw i64 %indvars.iv, 1
  %exitcond.not = icmp eq i64 %indvars.iv.next, %wide.trip.count
  br i1 %exitcond.not, label %.critedge, label %14, !llvm.loop !102

.critedge:                                        ; preds = %14, %8
  %indvars.iv.next20 = add nuw nsw i64 %indvars.iv19, 1
  %exitcond23.not = icmp eq i64 %indvars.iv.next20, %wide.trip.count22
  br i1 %exitcond23.not, label %._crit_edge, label %8, !llvm.loop !103

._crit_edge:                                      ; preds = %.critedge, %1
  ret void
}